target datalayout = "e-m:e-p270:32:32-p271:32:32-p272:64:64-i64:64-i128:128-f80:128-n8:16:32:64-S128"
target triple = "x86_64-pc-linux-gnu"

%struct.sharedObjectsStruct = type { ptr, ptr, ptr, ptr, ptr, ptr, ptr, ptr, [4 x ptr], [4 x ptr], [4 x ptr], [4 x ptr], ptr, ptr, ptr, ptr, ptr, ptr, ptr, ptr, ptr, ptr, ptr, ptr, ptr, ptr, ptr, ptr, ptr, ptr, ptr, ptr, ptr, ptr, ptr, ptr, ptr, ptr, ptr, ptr, ptr, ptr, ptr, ptr, ptr, ptr, ptr, ptr, ptr, ptr, ptr, ptr, ptr, ptr, ptr, ptr, ptr, ptr, ptr, ptr, ptr, ptr, ptr, ptr, ptr, ptr, ptr, ptr, ptr, ptr, ptr, ptr, ptr, ptr, ptr, ptr, ptr, ptr, ptr, ptr, ptr, ptr, ptr, ptr, ptr, ptr, ptr, ptr, [10 x ptr], [10000 x ptr], [32 x ptr], [32 x ptr], [32 x ptr], [32 x ptr], ptr, ptr }
%struct.dict = type { ptr, [2 x ptr], [2 x i64], i64, i16, [2 x i8], i16, [0 x ptr] }
%struct.dictExpireMetadata = type { %struct.ExpireMeta, ptr, ptr }
%struct.ExpireMeta = type { i32, i16, i16, ptr }
%struct.redisObject = type { i32, i32, ptr }
%struct.listpackEx = type { %struct.ExpireMeta, ptr, ptr }
%struct.lpFingArgs = type { i64, i64, ptr, i32, i32, ptr }
%struct.client = type { i64, i64, ptr, i8, i8, i8, i8, i32, ptr, ptr, ptr, ptr, ptr, i64, i64, i32, ptr, i32, i32, ptr, i64, ptr, ptr, ptr, ptr, ptr, i32, i32, i64, ptr, i64, ptr, i64, i64, i64, i32, ptr, i64, i64, i32, i32, i32, i32, i64, i64, ptr, i64, i64, i64, i64, i64, i64, i64, i64, [41 x i8], i32, ptr, i32, i32, i64, %struct.multiState, %struct.blockingState, i64, ptr, ptr, ptr, ptr, ptr, ptr, ptr, ptr, ptr, ptr, ptr, ptr, ptr, ptr, i64, ptr, i64, i32, ptr, ptr, ptr, i64, %struct.listNode, i64, i64, i32, i64, ptr }
%struct.multiState = type { ptr, i32, i32, i32, i64, i32 }
%struct.blockingState = type { i32, i64, i32, ptr, i32, i32, i64, ptr, ptr, i64 }
%struct.listNode = type { ptr, ptr, ptr }

@hashFieldExpireBucketsType = dso_local global { ptr, ptr, i32, [4 x i8] } { ptr @hfieldGetExpireMeta, ptr null, i32 1, [4 x i8] zeroinitializer }, align 8
@.str.1 = private unnamed_addr constant [40 x i8] c"o->encoding == OBJ_ENCODING_LISTPACK_EX\00", align 1
@.str.2 = private unnamed_addr constant [9 x i8] c"t_hash.c\00", align 1
@.str.11 = private unnamed_addr constant [22 x i8] c"Unknown hash encoding\00", align 1
@shared = external global %struct.sharedObjectsStruct, align 8

; Function Attrs: inlinehint nounwind uwtable
define internal i32 @isDictWithMetaHFE(ptr noundef %0) #7 {
  %2 = alloca ptr, align 8
  store ptr %0, ptr %2, align 8, !tbaa !5
  %3 = load ptr, ptr %2, align 8, !tbaa !5
  %4 = getelementptr inbounds nuw %struct.dict, ptr %3, i32 0, i32 0
  %5 = load ptr, ptr %4, align 8, !tbaa !128
  %6 = icmp eq ptr %5, @mstrHashDictTypeWithHFE
  %7 = zext i1 %6 to i32
  ret i32 %7
}

; Function Attrs: nounwind uwtable
define internal i64 @listpackExExpireDryRun(ptr noundef %0) #1 {
  %2 = alloca ptr, align 8
  %3 = alloca ptr, align 8
  %4 = alloca %struct.lpFingArgs, align 8
  store ptr %0, ptr %2, align 8, !tbaa !15
  %5 = load ptr, ptr %2, align 8, !tbaa !15
  %6 = load i32, ptr %5, align 8
  %7 = lshr i32 %6, 4
  %8 = and i32 %7, 15
  %9 = icmp eq i32 %8, 12
  %10 = xor i1 %9, true
  %11 = xor i1 %10, true
  %12 = zext i1 %11 to i32
  %13 = sext i32 %12 to i64
  %14 = call i64 @llvm.expect.i64(i64 %13, i64 1)
  %15 = icmp ne i64 %14, 0
  br i1 %15, label %16, label %17

16:                                               ; preds = %1
  br label %19

17:                                               ; preds = %1
  call void @_serverAssert(ptr noundef @.str.1, ptr noundef @.str.2, i32 noundef 353)
  call void @abort() #14
  unreachable

18:                                               ; No predecessors!
  br label %19

19:                                               ; preds = %18, %16
  call void @llvm.lifetime.start.p0(i64 8, ptr %3) #12
  %20 = load ptr, ptr %2, align 8, !tbaa !15
  %21 = getelementptr inbounds nuw %struct.redisObject, ptr %20, i32 0, i32 2
  %22 = load ptr, ptr %21, align 8, !tbaa !17
  store ptr %22, ptr %3, align 8, !tbaa !19
  call void @llvm.lifetime.start.p0(i64 40, ptr %4) #12
  %23 = getelementptr inbounds nuw %struct.lpFingArgs, ptr %4, i32 0, i32 0
  store i64 -1, ptr %23, align 8, !tbaa !80
  %24 = getelementptr inbounds nuw %struct.lpFingArgs, ptr %4, i32 0, i32 1
  %25 = call i64 @commandTimeSnapshot()
  store i64 %25, ptr %24, align 8, !tbaa !82
  %26 = getelementptr inbounds nuw %struct.lpFingArgs, ptr %4, i32 0, i32 2
  store ptr null, ptr %26, align 8, !tbaa !83
  %27 = getelementptr inbounds nuw %struct.lpFingArgs, ptr %4, i32 0, i32 3
  store i32 0, ptr %27, align 8, !tbaa !84
  %28 = getelementptr inbounds nuw %struct.lpFingArgs, ptr %4, i32 0, i32 4
  store i32 0, ptr %28, align 4, !tbaa !85
  %29 = getelementptr inbounds nuw %struct.lpFingArgs, ptr %4, i32 0, i32 5
  store ptr null, ptr %29, align 8, !tbaa !86
  %30 = load ptr, ptr %3, align 8, !tbaa !19
  %31 = getelementptr inbounds nuw %struct.listpackEx, ptr %30, i32 0, i32 2
  %32 = load ptr, ptr %31, align 8, !tbaa !21
  %33 = call ptr @lpFindCb(ptr noundef %32, ptr noundef null, ptr noundef %4, ptr noundef @cbFindInListpack, i32 noundef 0)
  %34 = getelementptr inbounds nuw %struct.lpFingArgs, ptr %4, i32 0, i32 3
  %35 = load i32, ptr %34, align 8, !tbaa !84
  %36 = sext i32 %35 to i64
  call void @llvm.lifetime.end.p0(i64 40, ptr %4) #12
  call void @llvm.lifetime.end.p0(i64 8, ptr %3) #12
  ret i64 %36
}

; Function Attrs: nounwind uwtable
define dso_local i64 @hashTypeLength(ptr noundef %0, i32 noundef %1) #1 {
  %3 = alloca ptr, align 8
  %4 = alloca i32, align 4
  %5 = alloca i64, align 8
  %6 = alloca ptr, align 8
  %7 = alloca i64, align 8
  %8 = alloca ptr, align 8
  %9 = alloca ptr, align 8
  store ptr %0, ptr %3, align 8, !tbaa !15
  store i32 %1, ptr %4, align 4, !tbaa !13
  call void @llvm.lifetime.start.p0(i64 8, ptr %5) #12
  store i64 -1, ptr %5, align 8, !tbaa !31
  %10 = load ptr, ptr %3, align 8, !tbaa !15
  %11 = load i32, ptr %10, align 8
  %12 = lshr i32 %11, 4
  %13 = and i32 %12, 15
  %14 = icmp eq i32 %13, 11
  br i1 %14, label %15, label %21

15:                                               ; preds = %2
  %16 = load ptr, ptr %3, align 8, !tbaa !15
  %17 = getelementptr inbounds nuw %struct.redisObject, ptr %16, i32 0, i32 2
  %18 = load ptr, ptr %17, align 8, !tbaa !17
  %19 = call i64 @lpLength(ptr noundef %18)
  %20 = udiv i64 %19, 2
  store i64 %20, ptr %5, align 8, !tbaa !31
  br label %102

21:                                               ; preds = %2
  %22 = load ptr, ptr %3, align 8, !tbaa !15
  %23 = load i32, ptr %22, align 8
  %24 = lshr i32 %23, 4
  %25 = and i32 %24, 15
  %26 = icmp eq i32 %25, 12
  br i1 %26, label %27, label %53

27:                                               ; preds = %21
  call void @llvm.lifetime.start.p0(i64 8, ptr %6) #12
  %28 = load ptr, ptr %3, align 8, !tbaa !15
  %29 = getelementptr inbounds nuw %struct.redisObject, ptr %28, i32 0, i32 2
  %30 = load ptr, ptr %29, align 8, !tbaa !17
  store ptr %30, ptr %6, align 8, !tbaa !19
  %31 = load ptr, ptr %6, align 8, !tbaa !19
  %32 = getelementptr inbounds nuw %struct.listpackEx, ptr %31, i32 0, i32 2
  %33 = load ptr, ptr %32, align 8, !tbaa !21
  %34 = call i64 @lpLength(ptr noundef %33)
  %35 = udiv i64 %34, 3
  store i64 %35, ptr %5, align 8, !tbaa !31
  %36 = load i32, ptr %4, align 4, !tbaa !13
  %37 = icmp ne i32 %36, 0
  br i1 %37, label %38, label %52

38:                                               ; preds = %27
  %39 = load ptr, ptr %6, align 8, !tbaa !19
  %40 = getelementptr inbounds nuw %struct.listpackEx, ptr %39, i32 0, i32 0
  %41 = getelementptr inbounds nuw %struct.ExpireMeta, ptr %40, i32 0, i32 2
  %42 = load i16, ptr %41, align 2
  %43 = lshr i16 %42, 8
  %44 = and i16 %43, 1
  %45 = zext i16 %44 to i32
  %46 = icmp eq i32 %45, 0
  br i1 %46, label %47, label %52

47:                                               ; preds = %38
  %48 = load ptr, ptr %3, align 8, !tbaa !15
  %49 = call i64 @listpackExExpireDryRun(ptr noundef %48)
  %50 = load i64, ptr %5, align 8, !tbaa !31
  %51 = sub i64 %50, %49
  store i64 %51, ptr %5, align 8, !tbaa !31
  br label %52

52:                                               ; preds = %47, %38, %27
  call void @llvm.lifetime.end.p0(i64 8, ptr %6) #12
  br label %101

53:                                               ; preds = %21
  %54 = load ptr, ptr %3, align 8, !tbaa !15
  %55 = load i32, ptr %54, align 8
  %56 = lshr i32 %55, 4
  %57 = and i32 %56, 15
  %58 = icmp eq i32 %57, 2
  br i1 %58, label %59, label %99

59:                                               ; preds = %53
  call void @llvm.lifetime.start.p0(i64 8, ptr %7) #12
  store i64 0, ptr %7, align 8, !tbaa !31
  call void @llvm.lifetime.start.p0(i64 8, ptr %8) #12
  %60 = load ptr, ptr %3, align 8, !tbaa !15
  %61 = getelementptr inbounds nuw %struct.redisObject, ptr %60, i32 0, i32 2
  %62 = load ptr, ptr %61, align 8, !tbaa !17
  store ptr %62, ptr %8, align 8, !tbaa !5
  %63 = load i32, ptr %4, align 4, !tbaa !13
  %64 = icmp ne i32 %63, 0
  br i1 %64, label %65, label %87

65:                                               ; preds = %59
  %66 = load ptr, ptr %8, align 8, !tbaa !5
  %67 = call i32 @isDictWithMetaHFE(ptr noundef %66)
  %68 = icmp ne i32 %67, 0
  br i1 %68, label %69, label %87

69:                                               ; preds = %65
  call void @llvm.lifetime.start.p0(i64 8, ptr %9) #12
  %70 = load ptr, ptr %8, align 8, !tbaa !5
  %71 = getelementptr inbounds nuw %struct.dict, ptr %70, i32 0, i32 7
  store ptr %71, ptr %9, align 8, !tbaa !11
  %72 = load ptr, ptr %9, align 8, !tbaa !11
  %73 = getelementptr inbounds nuw %struct.dictExpireMetadata, ptr %72, i32 0, i32 0
  %74 = getelementptr inbounds nuw %struct.ExpireMeta, ptr %73, i32 0, i32 2
  %75 = load i16, ptr %74, align 2
  %76 = lshr i16 %75, 8
  %77 = and i16 %76, 1
  %78 = zext i16 %77 to i32
  %79 = icmp eq i32 %78, 0
  br i1 %79, label %80, label %86

80:                                               ; preds = %69
  %81 = load ptr, ptr %9, align 8, !tbaa !11
  %82 = getelementptr inbounds nuw %struct.dictExpireMetadata, ptr %81, i32 0, i32 1
  %83 = load ptr, ptr %82, align 8, !tbaa !74
  %84 = call i64 @commandTimeSnapshot()
  %85 = call i64 @ebExpireDryRun(ptr noundef %83, ptr noundef @hashFieldExpireBucketsType, i64 noundef %84)
  store i64 %85, ptr %7, align 8, !tbaa !31
  br label %86

86:                                               ; preds = %80, %69
  call void @llvm.lifetime.end.p0(i64 8, ptr %9) #12
  br label %87

87:                                               ; preds = %86, %65, %59
  %88 = load ptr, ptr %8, align 8, !tbaa !5
  %89 = getelementptr inbounds nuw %struct.dict, ptr %88, i32 0, i32 2
  %90 = getelementptr inbounds [2 x i64], ptr %89, i64 0, i64 0
  %91 = load i64, ptr %90, align 8, !tbaa !31
  %92 = load ptr, ptr %8, align 8, !tbaa !5
  %93 = getelementptr inbounds nuw %struct.dict, ptr %92, i32 0, i32 2
  %94 = getelementptr inbounds [2 x i64], ptr %93, i64 0, i64 1
  %95 = load i64, ptr %94, align 8, !tbaa !31
  %96 = add i64 %91, %95
  %97 = load i64, ptr %7, align 8, !tbaa !31
  %98 = sub i64 %96, %97
  store i64 %98, ptr %5, align 8, !tbaa !31
  call void @llvm.lifetime.end.p0(i64 8, ptr %8) #12
  call void @llvm.lifetime.end.p0(i64 8, ptr %7) #12
  br label %100

99:                                               ; preds = %53
  call void (ptr, i32, ptr, ...) @_serverPanic(ptr noundef @.str.2, i32 noundef 1325, ptr noundef @.str.11)
  call void @abort() #14
  unreachable

100:                                              ; preds = %87
  br label %101

101:                                              ; preds = %100, %52
  br label %102

102:                                              ; preds = %101, %15
  %103 = load i64, ptr %5, align 8, !tbaa !31
  call void @llvm.lifetime.end.p0(i64 8, ptr %5) #12
  ret i64 %103
}

; Function Attrs: nounwind uwtable
define dso_local void @hlenCommand(ptr noundef %0) #1 {
  %2 = alloca ptr, align 8
  %3 = alloca ptr, align 8
  %4 = alloca i32, align 4
  store ptr %0, ptr %2, align 8, !tbaa !124
  call void @llvm.lifetime.start.p0(i64 8, ptr %3) #12
  %5 = load ptr, ptr %2, align 8, !tbaa !124
  %6 = load ptr, ptr %2, align 8, !tbaa !124
  %7 = getelementptr inbounds nuw %struct.client, ptr %6, i32 0, i32 16
  %8 = load ptr, ptr %7, align 8, !tbaa !155
  %9 = getelementptr inbounds ptr, ptr %8, i64 1
  %10 = load ptr, ptr %9, align 8, !tbaa !15
  %11 = load ptr, ptr getelementptr inbounds nuw (%struct.sharedObjectsStruct, ptr @shared, i32 0, i32 3), align 8, !tbaa !156
  %12 = call ptr @lookupKeyReadOrReply(ptr noundef %5, ptr noundef %10, ptr noundef %11)
  store ptr %12, ptr %3, align 8, !tbaa !15
  %13 = icmp eq ptr %12, null
  br i1 %13, label %19, label %14

14:                                               ; preds = %1
  %15 = load ptr, ptr %2, align 8, !tbaa !124
  %16 = load ptr, ptr %3, align 8, !tbaa !15
  %17 = call i32 @checkType(ptr noundef %15, ptr noundef %16, i32 noundef 4)
  %18 = icmp ne i32 %17, 0
  br i1 %18, label %19, label %20

19:                                               ; preds = %14, %1
  store i32 1, ptr %4, align 4
  br label %24

20:                                               ; preds = %14
  %21 = load ptr, ptr %2, align 8, !tbaa !124
  %22 = load ptr, ptr %3, align 8, !tbaa !15
  %23 = call i64 @hashTypeLength(ptr noundef %22, i32 noundef 0)
  call void @addReplyLongLong(ptr noundef %21, i64 noundef %23)
  store i32 0, ptr %4, align 4
  br label %24

24:                                               ; preds = %20, %19
  call void @llvm.lifetime.end.p0(i64 8, ptr %3) #12
  %25 = load i32, ptr %4, align 4
  switch i32 %25, label %27 [
    i32 0, label %26
    i32 1, label %26
  ]

26:                                               ; preds = %24, %24
  ret void

27:                                               ; preds = %24
  unreachable
}