; Function Attrs: nounwind uwtable
define dso_local void @hlenCommand(ptr noundef %0) local_unnamed_addr #1 {
  %2 = getelementptr inbounds nuw i8, ptr %0, i64 96
  %3 = load ptr, ptr %2, align 8, !tbaa !132
  %4 = getelementptr inbounds nuw i8, ptr %3, i64 8
  %5 = load ptr, ptr %4, align 8, !tbaa !64
  %6 = load ptr, ptr getelementptr inbounds nuw (i8, ptr @shared, i64 24), align 8, !tbaa !133
  %7 = tail call ptr @lookupKeyReadOrReply(ptr noundef %0, ptr noundef %5, ptr noundef %6) #16
  %8 = icmp eq ptr %7, null
  br i1 %8, label %36, label %9

9:                                                ; preds = %1
  %10 = tail call i32 @checkType(ptr noundef nonnull %0, ptr noundef nonnull %7, i32 noundef 4) #16
  %.not = icmp eq i32 %10, 0
  br i1 %.not, label %11, label %36

11:                                               ; preds = %9
  %12 = load i32, ptr %7, align 8
  %13 = lshr i32 %12, 4
  %14 = and i32 %13, 15
  switch i32 %14, label %35 [
    i32 11, label %15
    i32 12, label %20
    i32 2, label %27
  ]

15:                                               ; preds = %11
  %16 = getelementptr inbounds nuw i8, ptr %7, i64 8
  %17 = load ptr, ptr %16, align 8, !tbaa !10
  %18 = tail call i64 @lpLength(ptr noundef %17) #16
  %19 = lshr i64 %18, 1
  br label %hashTypeLength.exit

20:                                               ; preds = %11
  %21 = getelementptr inbounds nuw i8, ptr %7, i64 8
  %22 = load ptr, ptr %21, align 8, !tbaa !10
  %23 = getelementptr inbounds nuw i8, ptr %22, i64 24
  %24 = load ptr, ptr %23, align 8, !tbaa !15
  %25 = tail call i64 @lpLength(ptr noundef %24) #16
  %26 = udiv i64 %25, 3
  br label %hashTypeLength.exit

27:                                               ; preds = %11
  %28 = getelementptr inbounds nuw i8, ptr %7, i64 8
  %29 = load ptr, ptr %28, align 8, !tbaa !10
  %30 = getelementptr inbounds nuw i8, ptr %29, i64 24
  %31 = load i64, ptr %30, align 8, !tbaa !28
  %32 = getelementptr inbounds nuw i8, ptr %29, i64 32
  %33 = load i64, ptr %32, align 8, !tbaa !28
  %34 = add i64 %33, %31
  br label %hashTypeLength.exit

35:                                               ; preds = %11
  tail call void (ptr, i32, ptr, ...) @_serverPanic(ptr noundef nonnull @.str.2, i32 noundef 1325, ptr noundef nonnull @.str.11) #16
  tail call void @abort() #17
  unreachable

hashTypeLength.exit:                              ; preds = %15, %20, %27
  %.0.i = phi i64 [ %19, %15 ], [ %34, %27 ], [ %26, %20 ]
  tail call void @addReplyLongLong(ptr noundef nonnull %0, i64 noundef %.0.i) #16
  br label %36

36:                                               ; preds = %1, %9, %hashTypeLength.exit
  ret void
}